; Function Attrs: nofree norecurse nosync nounwind memory(readwrite, inaccessiblemem: none) uwtable
define internal void @draw_vtext(ptr noundef readonly captures(none) %0, i32 noundef %1, i32 noundef %2, i32 %3, float noundef %4, float noundef %5, ptr noundef readonly captures(none) %6, ptr noundef readonly captures(none) %7) #6 {
  %9 = getelementptr inbounds nuw i8, ptr %0, i64 64
  %10 = sext i32 %1 to i64
  br label %11

11:                                               ; preds = %8, %._crit_edge
  %indvars.iv54 = phi i64 [ 0, %8 ], [ %indvars.iv.next55, %._crit_edge ]
  %12 = getelementptr inbounds nuw [8 x ptr], ptr %0, i64 0, i64 %indvars.iv54
  %13 = load ptr, ptr %12, align 8, !tbaa !71
  %.not = icmp eq ptr %13, null
  br i1 %.not, label %.critedge, label %.preheader

.preheader:                                       ; preds = %11
  %14 = load i8, ptr %6, align 1, !tbaa !62
  %.not4147 = icmp eq i8 %14, 0
  br i1 %.not4147, label %._crit_edge, label %.lr.ph

.lr.ph:                                           ; preds = %.preheader
  %15 = getelementptr inbounds nuw i8, ptr %7, i64 %indvars.iv54
  %16 = getelementptr inbounds nuw [8 x i32], ptr %9, i64 0, i64 %indvars.iv54
  %.pre.pre = load i32, ptr %16, align 4, !tbaa !44
  br label %17

17:                                               ; preds = %.lr.ph, %56
  %.pre = phi i32 [ %.pre.pre, %.lr.ph ], [ %.pre58, %56 ]
  %indvars.iv51 = phi i64 [ 0, %.lr.ph ], [ %indvars.iv.next52, %56 ]
  %18 = getelementptr inbounds nuw i8, ptr %6, i64 %indvars.iv51
  %19 = load i8, ptr %15, align 1, !tbaa !62
  %20 = trunc i64 %indvars.iv51 to i32
  %21 = mul i32 %20, 10
  %22 = add nsw i32 %21, %2
  %23 = uitofp i8 %19 to float
  %24 = fmul nsz float %4, %23
  br label %25

25:                                               ; preds = %17, %55
  %.pre60 = phi i32 [ %.pre, %17 ], [ %.pre58, %55 ]
  %26 = phi i32 [ %.pre, %17 ], [ %51, %55 ]
  %indvars.iv = phi i64 [ 7, %17 ], [ %indvars.iv.next, %55 ]
  %27 = load ptr, ptr %12, align 8, !tbaa !71
  %28 = mul nsw i32 %26, %22
  %29 = sext i32 %28 to i64
  %30 = getelementptr inbounds i8, ptr %27, i64 %29
  %31 = getelementptr inbounds i8, ptr %30, i64 %10
  %32 = trunc nuw nsw i64 %indvars.iv to i32
  br label %33

33:                                               ; preds = %25, %50
  %.pre59 = phi i32 [ %.pre60, %25 ], [ %.pre58, %50 ]
  %34 = phi i32 [ %26, %25 ], [ %51, %50 ]
  %.045 = phi ptr [ %31, %25 ], [ %53, %50 ]
  %.03844 = phi i32 [ 128, %25 ], [ %54, %50 ]
  %35 = load i8, ptr %18, align 1, !tbaa !62
  %36 = sext i8 %35 to i32
  %37 = shl nsw i32 %36, 3
  %reass.sub = sub i32 %37, %32
  %38 = add i32 %reass.sub, 7
  %39 = sext i32 %38 to i64
  %40 = getelementptr inbounds i8, ptr @avpriv_cga_font, i64 %39
  %41 = load i8, ptr %40, align 1, !tbaa !62
  %42 = zext i8 %41 to i32
  %43 = and i32 %.03844, %42
  %.not43 = icmp eq i32 %43, 0
  br i1 %.not43, label %50, label %44

44:                                               ; preds = %33
  %45 = getelementptr inbounds nuw i8, ptr %.045, i64 %indvars.iv
  %46 = load i8, ptr %45, align 1, !tbaa !62
  %47 = uitofp i8 %46 to float
  %48 = tail call nsz float @llvm.fmuladd.f32(float %47, float %5, float %24)
  %49 = fptoui float %48 to i8
  store i8 %49, ptr %45, align 1, !tbaa !62
  %.pre57 = load i32, ptr %16, align 4, !tbaa !44
  br label %50

50:                                               ; preds = %44, %33
  %.pre58 = phi i32 [ %.pre57, %44 ], [ %.pre59, %33 ]
  %51 = phi i32 [ %.pre57, %44 ], [ %34, %33 ]
  %52 = sext i32 %51 to i64
  %53 = getelementptr inbounds i8, ptr %.045, i64 %52
  %54 = lshr i32 %.03844, 1
  %.not42 = icmp samesign ult i32 %.03844, 2
  br i1 %.not42, label %55, label %33, !llvm.loop !241

55:                                               ; preds = %50
  %indvars.iv.next = add nsw i64 %indvars.iv, -1
  %.not62 = icmp eq i64 %indvars.iv, 0
  br i1 %.not62, label %56, label %25, !llvm.loop !242

56:                                               ; preds = %55
  %indvars.iv.next52 = add nuw nsw i64 %indvars.iv51, 1
  %57 = getelementptr inbounds nuw i8, ptr %6, i64 %indvars.iv.next52
  %58 = load i8, ptr %57, align 1, !tbaa !62
  %.not41 = icmp eq i8 %58, 0
  br i1 %.not41, label %._crit_edge, label %17, !llvm.loop !243

._crit_edge:                                      ; preds = %56, %.preheader
  %indvars.iv.next55 = add nuw nsw i64 %indvars.iv54, 1
  %exitcond.not = icmp eq i64 %indvars.iv.next55, 4
  br i1 %exitcond.not, label %.critedge, label %11, !llvm.loop !244

.critedge:                                        ; preds = %._crit_edge, %11
  ret void
}